target datalayout = "e-m:e-p270:32:32-p271:32:32-p272:64:64-i64:64-i128:128-f80:128-n8:16:32:64-S128"
target triple = "x86_64-unknown-linux-gnu"

%struct.__jmp_buf_tag = type { [8 x i64], i32, %struct.__sigset_t }
%struct.__sigset_t = type { [16 x i64] }
%struct.sigaction = type { %union.anon.209, %struct.__sigset_t, i32, ptr }
%union.anon.209 = type { ptr }

@_ZL14readlineJmpBuf = internal global [1 x %struct.__jmp_buf_tag] zeroinitializer, align 16
@_ZL9oldAction = internal global %struct.sigaction zeroinitializer, align 8

; Function Attrs: mustprogress nounwind uwtable
define internal void @_ZL12handleSignali(i32 noundef %sig) #4 {
entry:
  %sig.addr = alloca i32, align 4
  %action = alloca %struct.sigaction, align 8
  store i32 %sig, ptr %sig.addr, align 4
  %0 = load i32, ptr %sig.addr, align 4
  %cmp = icmp eq i32 %0, 2
  br i1 %cmp, label %if.then, label %if.end

if.then:                                          ; preds = %entry
  %sa_mask = getelementptr inbounds %struct.sigaction, ptr %action, i32 0, i32 1
  %call = call i32 @sigemptyset(ptr noundef %sa_mask) #3
  %sa_flags = getelementptr inbounds %struct.sigaction, ptr %action, i32 0, i32 2
  store i32 0, ptr %sa_flags, align 8
  %1 = load ptr, ptr @_ZL9oldAction, align 8
  %__sigaction_handler = getelementptr inbounds %struct.sigaction, ptr %action, i32 0, i32 0
  store ptr %1, ptr %__sigaction_handler, align 8
  %call1 = call i32 @sigaction(i32 noundef 2, ptr noundef %action, ptr noundef @_ZL9oldAction) #3
  call void @longjmp(ptr noundef @_ZL14readlineJmpBuf, i32 noundef 1) #18
  unreachable

if.end:                                           ; preds = %entry
  ret void
}