; Function Attrs: mustprogress nounwind uwtable
define internal void @_ZL12handleSignali(i32 noundef %sig) #3 {
entry:
  %action = alloca %struct.sigaction, align 8
  %cmp = icmp eq i32 %sig, 2
  br i1 %cmp, label %if.then, label %if.end

if.then:                                          ; preds = %entry
  %sa_mask = getelementptr inbounds i8, ptr %action, i64 8
  %call = call i32 @sigemptyset(ptr noundef nonnull %sa_mask) #20
  %sa_flags = getelementptr inbounds i8, ptr %action, i64 136
  store i32 0, ptr %sa_flags, align 8
  %0 = load ptr, ptr @_ZL9oldAction, align 8
  store ptr %0, ptr %action, align 8
  %call1 = call i32 @sigaction(i32 noundef 2, ptr noundef nonnull %action, ptr noundef nonnull @_ZL9oldAction) #20
  call void @longjmp(ptr noundef nonnull @_ZL14readlineJmpBuf, i32 noundef 1) #22
  unreachable

if.end:                                           ; preds = %entry
  ret void
}